target datalayout = "e-m:e-p270:32:32-p271:32:32-p272:64:64-i64:64-i128:128-f80:128-n8:16:32:64-S128"
target triple = "x86_64-pc-linux-gnu"

%struct.expert_field = type { i32, i32 }
%struct.ansi_a_shared_data_t = type { ptr, ptr, ptr, i8, i8, %struct._address, i32, %struct.e_in6_addr, i16, i8 }
%struct._address = type { i32, i32, ptr, ptr }
%struct.e_in6_addr = type { [16 x i8] }

@ei_ansi_a_extraneous_data = internal global %struct.expert_field zeroinitializer, align 4
@hf_ansi_a_reserved_bits_16_8000 = internal global i32 0, align 4
@hf_ansi_a_sid = internal global i32 0, align 4
@hf_ansi_a_nid = internal global i32 0, align 4
@hf_ansi_a_pzid = internal global i32 0, align 4
@.str.1005 = private unnamed_addr constant [28 x i8] c" - (SID/NID/PZID: %u/%u/%u)\00", align 1

; Function Attrs: null_pointer_is_valid sspstrong uwtable
define internal zeroext i8 @elem_acc_net_id(ptr noundef %0, ptr noundef %1, ptr noundef %2, i32 noundef %3, i32 noundef %4, ptr noundef %5) #1 {
  %7 = alloca ptr, align 8
  %8 = alloca ptr, align 8
  %9 = alloca ptr, align 8
  %10 = alloca i32, align 4
  %11 = alloca i32, align 4
  %12 = alloca ptr, align 8
  %13 = alloca i32, align 4
  %14 = alloca i32, align 4
  %15 = alloca i32, align 4
  %16 = alloca i32, align 4
  store ptr %0, ptr %7, align 8
  store ptr %1, ptr %8, align 8
  store ptr %2, ptr %9, align 8
  store i32 %3, ptr %10, align 4
  store i32 %4, ptr %11, align 4
  store ptr %5, ptr %12, align 8
  call void @llvm.lifetime.start.p0(i64 4, ptr %13) #8
  call void @llvm.lifetime.start.p0(i64 4, ptr %14) #8
  call void @llvm.lifetime.start.p0(i64 4, ptr %15) #8
  call void @llvm.lifetime.start.p0(i64 4, ptr %16) #8
  %17 = load i32, ptr %10, align 4
  store i32 %17, ptr %16, align 4
  %18 = load ptr, ptr %9, align 8
  %19 = load i32, ptr @hf_ansi_a_reserved_bits_16_8000, align 4
  %20 = load ptr, ptr %7, align 8
  %21 = load i32, ptr %16, align 4
  %22 = call ptr @proto_tree_add_item(ptr noundef %18, i32 noundef %19, ptr noundef %20, i32 noundef %21, i32 noundef 2, i32 noundef 0)
  %23 = load ptr, ptr %9, align 8
  %24 = load i32, ptr @hf_ansi_a_sid, align 4
  %25 = load ptr, ptr %7, align 8
  %26 = load i32, ptr %16, align 4
  %27 = call ptr @proto_tree_add_item(ptr noundef %23, i32 noundef %24, ptr noundef %25, i32 noundef %26, i32 noundef 2, i32 noundef 0)
  %28 = load ptr, ptr %9, align 8
  %29 = load i32, ptr @hf_ansi_a_nid, align 4
  %30 = load ptr, ptr %7, align 8
  %31 = load i32, ptr %16, align 4
  %32 = call ptr @proto_tree_add_item(ptr noundef %28, i32 noundef %29, ptr noundef %30, i32 noundef %31, i32 noundef 2, i32 noundef 0)
  %33 = load ptr, ptr %9, align 8
  %34 = load i32, ptr @hf_ansi_a_pzid, align 4
  %35 = load ptr, ptr %7, align 8
  %36 = load i32, ptr %16, align 4
  %37 = call ptr @proto_tree_add_item(ptr noundef %33, i32 noundef %34, ptr noundef %35, i32 noundef %36, i32 noundef 1, i32 noundef 0)
  %38 = load ptr, ptr %7, align 8
  %39 = load i32, ptr %16, align 4
  %40 = call zeroext i16 @tvb_get_ntohs(ptr noundef %38, i32 noundef %39)
  %41 = zext i16 %40 to i32
  %42 = and i32 %41, 32767
  store i32 %42, ptr %13, align 4
  %43 = load i32, ptr %16, align 4
  %44 = add i32 %43, 2
  store i32 %44, ptr %16, align 4
  %45 = load ptr, ptr %7, align 8
  %46 = load i32, ptr %16, align 4
  %47 = call zeroext i16 @tvb_get_ntohs(ptr noundef %45, i32 noundef %46)
  %48 = zext i16 %47 to i32
  store i32 %48, ptr %14, align 4
  %49 = load i32, ptr %16, align 4
  %50 = add i32 %49, 2
  store i32 %50, ptr %16, align 4
  %51 = load ptr, ptr %7, align 8
  %52 = load i32, ptr %16, align 4
  %53 = call zeroext i8 @tvb_get_uint8(ptr noundef %51, i32 noundef %52)
  %54 = zext i8 %53 to i32
  store i32 %54, ptr %15, align 4
  %55 = load ptr, ptr %12, align 8
  %56 = getelementptr inbounds nuw %struct.ansi_a_shared_data_t, ptr %55, i32 0, i32 2
  %57 = load ptr, ptr %56, align 8
  %58 = load i32, ptr %13, align 4
  %59 = load i32, ptr %14, align 4
  %60 = load i32, ptr %15, align 4
  call void (ptr, ptr, ...) @proto_item_append_text(ptr noundef %57, ptr noundef @.str.1005, i32 noundef %58, i32 noundef %59, i32 noundef %60)
  %61 = load i32, ptr %16, align 4
  %62 = add i32 %61, 1
  store i32 %62, ptr %16, align 4
  %63 = load i32, ptr %11, align 4
  %64 = load i32, ptr %16, align 4
  %65 = load i32, ptr %10, align 4
  %66 = sub i32 %64, %65
  %67 = icmp ugt i32 %63, %66
  br i1 %67, label %68, label %86

68:                                               ; preds = %6
  %69 = load ptr, ptr %9, align 8
  %70 = load ptr, ptr %8, align 8
  %71 = load ptr, ptr %7, align 8
  %72 = load i32, ptr %16, align 4
  %73 = load i32, ptr %11, align 4
  %74 = load i32, ptr %16, align 4
  %75 = load i32, ptr %10, align 4
  %76 = sub i32 %74, %75
  %77 = sub i32 %73, %76
  %78 = call ptr @proto_tree_add_expert(ptr noundef %69, ptr noundef %70, ptr noundef @ei_ansi_a_extraneous_data, ptr noundef %71, i32 noundef %72, i32 noundef %77)
  %79 = load i32, ptr %11, align 4
  %80 = load i32, ptr %16, align 4
  %81 = load i32, ptr %10, align 4
  %82 = sub i32 %80, %81
  %83 = sub i32 %79, %82
  %84 = load i32, ptr %16, align 4
  %85 = add i32 %84, %83
  store i32 %85, ptr %16, align 4
  br label %86

86:                                               ; preds = %68, %6
  %87 = load i32, ptr %16, align 4
  %88 = load i32, ptr %10, align 4
  %89 = sub i32 %87, %88
  %90 = trunc i32 %89 to i8
  call void @llvm.lifetime.end.p0(i64 4, ptr %16) #8
  call void @llvm.lifetime.end.p0(i64 4, ptr %15) #8
  call void @llvm.lifetime.end.p0(i64 4, ptr %14) #8
  call void @llvm.lifetime.end.p0(i64 4, ptr %13) #8
  ret i8 %90
}