; Function Attrs: null_pointer_is_valid sspstrong uwtable
define internal noundef zeroext i8 @elem_acc_net_id(ptr noundef %0, ptr noundef %1, ptr noundef %2, i32 noundef %3, i32 noundef %4, ptr noundef readonly captures(none) %5) #1 {
  %7 = load i32, ptr @hf_ansi_a_reserved_bits_16_8000, align 4
  %8 = tail call ptr @proto_tree_add_item(ptr noundef %2, i32 noundef %7, ptr noundef %0, i32 noundef %3, i32 noundef 2, i32 noundef 0)
  %9 = load i32, ptr @hf_ansi_a_sid, align 4
  %10 = tail call ptr @proto_tree_add_item(ptr noundef %2, i32 noundef %9, ptr noundef %0, i32 noundef %3, i32 noundef 2, i32 noundef 0)
  %11 = load i32, ptr @hf_ansi_a_nid, align 4
  %12 = tail call ptr @proto_tree_add_item(ptr noundef %2, i32 noundef %11, ptr noundef %0, i32 noundef %3, i32 noundef 2, i32 noundef 0)
  %13 = load i32, ptr @hf_ansi_a_pzid, align 4
  %14 = tail call ptr @proto_tree_add_item(ptr noundef %2, i32 noundef %13, ptr noundef %0, i32 noundef %3, i32 noundef 1, i32 noundef 0)
  %15 = tail call zeroext i16 @tvb_get_ntohs(ptr noundef %0, i32 noundef %3)
  %16 = and i16 %15, 32767
  %17 = zext nneg i16 %16 to i32
  %18 = add i32 %3, 2
  %19 = tail call zeroext i16 @tvb_get_ntohs(ptr noundef %0, i32 noundef %18)
  %20 = zext i16 %19 to i32
  %21 = add i32 %3, 4
  %22 = tail call zeroext i8 @tvb_get_uint8(ptr noundef %0, i32 noundef %21)
  %23 = zext i8 %22 to i32
  %24 = getelementptr inbounds nuw i8, ptr %5, i64 16
  %25 = load ptr, ptr %24, align 8
  tail call void (ptr, ptr, ...) @proto_item_append_text(ptr noundef %25, ptr noundef nonnull @.str.1005, i32 noundef %17, i32 noundef %20, i32 noundef %23)
  %26 = add i32 %3, 5
  %27 = icmp ugt i32 %4, 5
  br i1 %27, label %28, label %32

28:                                               ; preds = %6
  %29 = add i32 %4, -5
  %30 = tail call ptr @proto_tree_add_expert(ptr noundef %2, ptr noundef %1, ptr noundef nonnull @ei_ansi_a_extraneous_data, ptr noundef %0, i32 noundef %26, i32 noundef %29)
  %31 = add i32 %4, %3
  br label %32

32:                                               ; preds = %28, %6
  %.0 = phi i32 [ %31, %28 ], [ %26, %6 ]
  %33 = sub i32 %.0, %3
  %34 = trunc i32 %33 to i8
  ret i8 %34
}